; Function Attrs: nounwind uwtable
define dso_local range(i32 -2, 2) i32 @git_configset_get_value(ptr noundef %0, ptr noundef %1, ptr noundef writeonly captures(none) %2, ptr noundef writeonly %3) local_unnamed_addr #0 {
  %5 = alloca %struct.config_set_element, align 8
  %6 = alloca ptr, align 8
  call void @llvm.lifetime.start.p0(i64 64, ptr nonnull %5) #30
  call void @llvm.lifetime.start.p0(i64 8, ptr nonnull %6) #30
  %7 = call i32 @git_config_parse_key(ptr noundef %1, ptr noundef nonnull %6, ptr noundef null)
  %.not.i.i = icmp eq i32 %7, 0
  br i1 %.not.i.i, label %8, label %configset_find_element.exit.i

configset_find_element.exit.i:                    ; preds = %4
  call void @llvm.lifetime.end.p0(i64 8, ptr nonnull %6) #30
  call void @llvm.lifetime.end.p0(i64 64, ptr nonnull %5) #30
  br label %git_configset_get_value_multi.exit.thread

8:                                                ; preds = %4
  %9 = load ptr, ptr %6, align 8, !tbaa !17
  %10 = tail call i32 @strhash(ptr noundef %9) #30
  %11 = getelementptr inbounds nuw i8, ptr %5, i64 8
  store i32 %10, ptr %11, align 8, !tbaa !114
  store ptr null, ptr %5, align 8, !tbaa !115
  %12 = getelementptr inbounds nuw i8, ptr %5, i64 16
  store ptr %9, ptr %12, align 8, !tbaa !108
  %13 = call ptr @hashmap_get(ptr noundef %0, ptr noundef nonnull %5, ptr noundef null) #30
  call void @free(ptr noundef %9) #30
  call void @llvm.lifetime.end.p0(i64 8, ptr nonnull %6) #30
  call void @llvm.lifetime.end.p0(i64 64, ptr nonnull %5) #30
  %.not6.i = icmp eq ptr %13, null
  br i1 %.not6.i, label %git_configset_get_value_multi.exit.thread, label %14

14:                                               ; preds = %8
  %15 = getelementptr inbounds nuw i8, ptr %13, i64 24
  %16 = load ptr, ptr %15, align 8, !tbaa !97
  %17 = getelementptr inbounds nuw i8, ptr %13, i64 32
  %18 = load i64, ptr %17, align 8, !tbaa !100
  %19 = getelementptr %struct.string_list_item, ptr %16, i64 %18
  %20 = getelementptr i8, ptr %19, i64 -16
  %.sroa.0.0.copyload = load ptr, ptr %20, align 8, !tbaa !17
  %.sroa.4.0..sroa_idx = getelementptr i8, ptr %19, i64 -8
  %.sroa.4.0.copyload = load ptr, ptr %.sroa.4.0..sroa_idx, align 8, !tbaa !96
  store ptr %.sroa.0.0.copyload, ptr %2, align 8, !tbaa !17
  %.not8 = icmp eq ptr %3, null
  br i1 %.not8, label %git_configset_get_value_multi.exit.thread, label %21

21:                                               ; preds = %14
  call void @llvm.memcpy.p0.p0.i64(ptr noundef nonnull align 8 dereferenceable(32) %3, ptr noundef nonnull align 8 dereferenceable(32) %.sroa.4.0.copyload, i64 32, i1 false), !tbaa.struct !123
  br label %git_configset_get_value_multi.exit.thread

git_configset_get_value_multi.exit.thread:        ; preds = %8, %configset_find_element.exit.i, %14, %21
  %.0 = phi i32 [ 0, %21 ], [ 0, %14 ], [ 1, %8 ], [ %7, %configset_find_element.exit.i ]
  ret i32 %.0
}